; Function Attrs: mustprogress uwtable
define noundef zeroext i1 @_ZNK6icu_7713DecimalFormateqERKNS_6FormatE(ptr noundef nonnull align 8 dereferenceable(72) %0, ptr noundef nonnull align 8 dereferenceable(24) %1) unnamed_addr #1 align 2 {
  %3 = tail call ptr @__dynamic_cast(ptr nonnull %1, ptr nonnull @_ZTIN6icu_776FormatE, ptr nonnull @_ZTIN6icu_7713DecimalFormatE, i64 0) #19
  %4 = icmp eq ptr %3, null
  br i1 %4, label %27, label %5

5:                                                ; preds = %2
  %6 = getelementptr inbounds nuw i8, ptr %0, i64 64
  %7 = load ptr, ptr %6, align 8, !tbaa !25
  %8 = icmp eq ptr %7, null
  br i1 %8, label %27, label %9

9:                                                ; preds = %5
  %10 = getelementptr inbounds nuw i8, ptr %3, i64 64
  %11 = load ptr, ptr %10, align 8, !tbaa !25
  %12 = icmp eq ptr %11, null
  br i1 %12, label %27, label %13

13:                                               ; preds = %9
  %14 = getelementptr inbounds nuw i8, ptr %7, i64 8
  %15 = getelementptr inbounds nuw i8, ptr %11, i64 8
  %16 = tail call noundef zeroext i1 @_ZNK6icu_776number4impl23DecimalFormatProperties7_equalsERKS2_b(ptr noundef nonnull align 8 dereferenceable(757) %14, ptr noundef nonnull align 8 dereferenceable(757) %15, i1 noundef zeroext false)
  br i1 %16, label %17, label %27

17:                                               ; preds = %13
  %18 = load ptr, ptr %0, align 8, !tbaa !18
  %19 = getelementptr inbounds nuw i8, ptr %18, i64 312
  %20 = load ptr, ptr %19, align 8
  %21 = tail call noundef ptr %20(ptr noundef nonnull align 8 dereferenceable(72) %0)
  %22 = load ptr, ptr %3, align 8, !tbaa !18
  %23 = getelementptr inbounds nuw i8, ptr %22, i64 312
  %24 = load ptr, ptr %23, align 8
  %25 = tail call noundef ptr %24(ptr noundef nonnull align 8 dereferenceable(72) %3)
  %26 = tail call noundef zeroext i1 @_ZNK6icu_7720DecimalFormatSymbolseqERKS0_(ptr noundef nonnull align 8 dereferenceable(2579) %21, ptr noundef nonnull align 8 dereferenceable(2579) %25)
  br label %27

27:                                               ; preds = %13, %17, %5, %9, %2
  %.0 = phi i1 [ false, %2 ], [ false, %9 ], [ false, %5 ], [ false, %13 ], [ %26, %17 ]
  ret i1 %.0
}